target datalayout = "e-m:e-p270:32:32-p271:32:32-p272:64:64-i64:64-i128:128-f80:128-n8:16:32:64-S128"
target triple = "x86_64-pc-linux-gnu"

%struct.PCF_FaceRec_ = type { %struct.FT_FaceRec_, %struct.FT_StreamRec_, ptr, ptr, ptr, %struct.PCF_TocRec_, %struct.PCF_AccelRec_, i32, ptr, i64, ptr, %struct.PCF_EncRec_, i64 }
%struct.FT_FaceRec_ = type { i64, i64, i64, i64, i64, ptr, ptr, i32, ptr, i32, ptr, %struct.FT_Generic_, %struct.FT_BBox_, i16, i16, i16, i16, i16, i16, i16, i16, ptr, ptr, ptr, ptr, ptr, ptr, %struct.FT_ListRec_, %struct.FT_Generic_, ptr, ptr }
%struct.FT_BBox_ = type { i64, i64, i64, i64 }
%struct.FT_ListRec_ = type { ptr, ptr }
%struct.FT_Generic_ = type { ptr, ptr }
%struct.FT_StreamRec_ = type { ptr, i64, i64, %union.FT_StreamDesc_, %union.FT_StreamDesc_, ptr, ptr, ptr, ptr, ptr }
%union.FT_StreamDesc_ = type { i64 }
%struct.PCF_TocRec_ = type { i64, i64, ptr }
%struct.PCF_AccelRec_ = type { i8, i8, i8, i8, i8, i8, i8, i64, i64, i64, %struct.PCF_MetricRec_, %struct.PCF_MetricRec_, %struct.PCF_MetricRec_, %struct.PCF_MetricRec_ }
%struct.PCF_MetricRec_ = type { i16, i16, i16, i16, i16, i16, i64 }
%struct.PCF_EncRec_ = type { i16, i16, i16, i16, i16, ptr }
%struct.FT_SizeRec_ = type { ptr, %struct.FT_Generic_, %struct.FT_Size_Metrics_, ptr }
%struct.FT_Size_Metrics_ = type { i16, i16, i64, i64, i64, i64, i64, i64 }
%struct.FT_Size_RequestRec_ = type { i32, i64, i64, i32, i32 }
%struct.FT_Bitmap_Size_ = type { i16, i16, i64, i64, i64 }

; Function Attrs: nounwind uwtable
define internal i32 @PCF_Size_Select(ptr noundef %0, i64 noundef %1) #0 {
  %3 = alloca ptr, align 8
  %4 = alloca i64, align 8
  %5 = alloca ptr, align 8
  store ptr %0, ptr %3, align 8
  store i64 %1, ptr %4, align 8
  %6 = load ptr, ptr %3, align 8
  %7 = getelementptr inbounds %struct.FT_SizeRec_, ptr %6, i32 0, i32 0
  %8 = load ptr, ptr %7, align 8
  %9 = getelementptr inbounds %struct.PCF_FaceRec_, ptr %8, i32 0, i32 6
  store ptr %9, ptr %5, align 8
  %10 = load ptr, ptr %3, align 8
  %11 = getelementptr inbounds %struct.FT_SizeRec_, ptr %10, i32 0, i32 0
  %12 = load ptr, ptr %11, align 8
  %13 = load i64, ptr %4, align 8
  call void @FT_Select_Metrics(ptr noundef %12, i64 noundef %13)
  %14 = load ptr, ptr %5, align 8
  %15 = getelementptr inbounds %struct.PCF_AccelRec_, ptr %14, i32 0, i32 7
  %16 = load i64, ptr %15, align 8
  %17 = mul nsw i64 %16, 64
  %18 = load ptr, ptr %3, align 8
  %19 = getelementptr inbounds %struct.FT_SizeRec_, ptr %18, i32 0, i32 2
  %20 = getelementptr inbounds %struct.FT_Size_Metrics_, ptr %19, i32 0, i32 4
  store i64 %17, ptr %20, align 8
  %21 = load ptr, ptr %5, align 8
  %22 = getelementptr inbounds %struct.PCF_AccelRec_, ptr %21, i32 0, i32 8
  %23 = load i64, ptr %22, align 8
  %24 = sub nsw i64 0, %23
  %25 = mul nsw i64 %24, 64
  %26 = load ptr, ptr %3, align 8
  %27 = getelementptr inbounds %struct.FT_SizeRec_, ptr %26, i32 0, i32 2
  %28 = getelementptr inbounds %struct.FT_Size_Metrics_, ptr %27, i32 0, i32 5
  store i64 %25, ptr %28, align 8
  %29 = load ptr, ptr %5, align 8
  %30 = getelementptr inbounds %struct.PCF_AccelRec_, ptr %29, i32 0, i32 11
  %31 = getelementptr inbounds %struct.PCF_MetricRec_, ptr %30, i32 0, i32 2
  %32 = load i16, ptr %31, align 4
  %33 = sext i16 %32 to i32
  %34 = mul nsw i32 %33, 64
  %35 = sext i32 %34 to i64
  %36 = load ptr, ptr %3, align 8
  %37 = getelementptr inbounds %struct.FT_SizeRec_, ptr %36, i32 0, i32 2
  %38 = getelementptr inbounds %struct.FT_Size_Metrics_, ptr %37, i32 0, i32 7
  store i64 %35, ptr %38, align 8
  ret i32 0
}

; Function Attrs: nounwind uwtable
define internal i32 @PCF_Size_Request(ptr noundef %0, ptr noundef %1) #0 {
  %3 = alloca i32, align 4
  %4 = alloca ptr, align 8
  %5 = alloca ptr, align 8
  %6 = alloca ptr, align 8
  %7 = alloca ptr, align 8
  %8 = alloca i32, align 4
  %9 = alloca i64, align 8
  store ptr %0, ptr %4, align 8
  store ptr %1, ptr %5, align 8
  %10 = load ptr, ptr %4, align 8
  %11 = getelementptr inbounds %struct.FT_SizeRec_, ptr %10, i32 0, i32 0
  %12 = load ptr, ptr %11, align 8
  store ptr %12, ptr %6, align 8
  %13 = load ptr, ptr %4, align 8
  %14 = getelementptr inbounds %struct.FT_SizeRec_, ptr %13, i32 0, i32 0
  %15 = load ptr, ptr %14, align 8
  %16 = getelementptr inbounds %struct.FT_FaceRec_, ptr %15, i32 0, i32 8
  %17 = load ptr, ptr %16, align 8
  store ptr %17, ptr %7, align 8
  store i32 23, ptr %8, align 4
  %18 = load ptr, ptr %5, align 8
  %19 = getelementptr inbounds %struct.FT_Size_RequestRec_, ptr %18, i32 0, i32 4
  %20 = load i32, ptr %19, align 4
  %21 = icmp ne i32 %20, 0
  br i1 %21, label %22, label %33

22:                                               ; preds = %2
  %23 = load ptr, ptr %5, align 8
  %24 = getelementptr inbounds %struct.FT_Size_RequestRec_, ptr %23, i32 0, i32 2
  %25 = load i64, ptr %24, align 8
  %26 = load ptr, ptr %5, align 8
  %27 = getelementptr inbounds %struct.FT_Size_RequestRec_, ptr %26, i32 0, i32 4
  %28 = load i32, ptr %27, align 4
  %29 = zext i32 %28 to i64
  %30 = mul nsw i64 %25, %29
  %31 = add nsw i64 %30, 36
  %32 = sdiv i64 %31, 72
  br label %37

33:                                               ; preds = %2
  %34 = load ptr, ptr %5, align 8
  %35 = getelementptr inbounds %struct.FT_Size_RequestRec_, ptr %34, i32 0, i32 2
  %36 = load i64, ptr %35, align 8
  br label %37

37:                                               ; preds = %33, %22
  %38 = phi i64 [ %32, %22 ], [ %36, %33 ]
  store i64 %38, ptr %9, align 8
  %39 = load i64, ptr %9, align 8
  %40 = add nsw i64 %39, 32
  %41 = ashr i64 %40, 6
  store i64 %41, ptr %9, align 8
  %42 = load ptr, ptr %5, align 8
  %43 = getelementptr inbounds %struct.FT_Size_RequestRec_, ptr %42, i32 0, i32 0
  %44 = load i32, ptr %43, align 8
  switch i32 %44, label %69 [
    i32 0, label %45
    i32 1, label %55
  ]

45:                                               ; preds = %37
  %46 = load i64, ptr %9, align 8
  %47 = load ptr, ptr %7, align 8
  %48 = getelementptr inbounds %struct.FT_Bitmap_Size_, ptr %47, i32 0, i32 4
  %49 = load i64, ptr %48, align 8
  %50 = add nsw i64 %49, 32
  %51 = ashr i64 %50, 6
  %52 = icmp eq i64 %46, %51
  br i1 %52, label %53, label %54

53:                                               ; preds = %45
  store i32 0, ptr %8, align 4
  br label %54

54:                                               ; preds = %53, %45
  br label %70

55:                                               ; preds = %37
  %56 = load i64, ptr %9, align 8
  %57 = load ptr, ptr %6, align 8
  %58 = getelementptr inbounds %struct.PCF_FaceRec_, ptr %57, i32 0, i32 6
  %59 = getelementptr inbounds %struct.PCF_AccelRec_, ptr %58, i32 0, i32 7
  %60 = load i64, ptr %59, align 8
  %61 = load ptr, ptr %6, align 8
  %62 = getelementptr inbounds %struct.PCF_FaceRec_, ptr %61, i32 0, i32 6
  %63 = getelementptr inbounds %struct.PCF_AccelRec_, ptr %62, i32 0, i32 8
  %64 = load i64, ptr %63, align 8
  %65 = add nsw i64 %60, %64
  %66 = icmp eq i64 %56, %65
  br i1 %66, label %67, label %68

67:                                               ; preds = %55
  store i32 0, ptr %8, align 4
  br label %68

68:                                               ; preds = %67, %55
  br label %70

69:                                               ; preds = %37
  store i32 7, ptr %8, align 4
  br label %70

70:                                               ; preds = %69, %68, %54
  %71 = load i32, ptr %8, align 4
  %72 = icmp ne i32 %71, 0
  br i1 %72, label %73, label %75

73:                                               ; preds = %70
  %74 = load i32, ptr %8, align 4
  store i32 %74, ptr %3, align 4
  br label %78

75:                                               ; preds = %70
  %76 = load ptr, ptr %4, align 8
  %77 = call i32 @PCF_Size_Select(ptr noundef %76, i64 noundef 0)
  store i32 %77, ptr %3, align 4
  br label %78

78:                                               ; preds = %75, %73
  %79 = load i32, ptr %3, align 4
  ret i32 %79
}