; Function Attrs: nounwind uwtable
define internal range(i32 0, 24) i32 @PCF_Size_Request(ptr nocapture noundef %0, ptr nocapture noundef readonly %1) #1 {
  %3 = load ptr, ptr %0, align 8
  %4 = getelementptr inbounds i8, ptr %3, i64 64
  %5 = load ptr, ptr %4, align 8
  %6 = getelementptr inbounds i8, ptr %1, i64 28
  %7 = load i32, ptr %6, align 4
  %.not = icmp eq i32 %7, 0
  %8 = getelementptr inbounds i8, ptr %1, i64 16
  %9 = load i64, ptr %8, align 8
  br i1 %.not, label %15, label %10

10:                                               ; preds = %2
  %11 = zext i32 %7 to i64
  %12 = mul nsw i64 %9, %11
  %13 = add nsw i64 %12, 36
  %14 = sdiv i64 %13, 72
  br label %15

15:                                               ; preds = %2, %10
  %16 = phi i64 [ %14, %10 ], [ %9, %2 ]
  %17 = add nsw i64 %16, 32
  %18 = ashr i64 %17, 6
  %19 = load i32, ptr %1, align 8
  switch i32 %19, label %.thread [
    i32 0, label %20
    i32 1, label %26
  ]

20:                                               ; preds = %15
  %21 = getelementptr inbounds i8, ptr %5, i64 24
  %22 = load i64, ptr %21, align 8
  %23 = add nsw i64 %22, 32
  %24 = ashr i64 %23, 6
  %25 = icmp eq i64 %18, %24
  br i1 %25, label %33, label %.thread

26:                                               ; preds = %15
  %27 = getelementptr inbounds i8, ptr %3, i64 384
  %28 = load i64, ptr %27, align 8
  %29 = getelementptr inbounds i8, ptr %3, i64 392
  %30 = load i64, ptr %29, align 8
  %31 = add nsw i64 %30, %28
  %32 = icmp eq i64 %18, %31
  br i1 %32, label %33, label %.thread

33:                                               ; preds = %20, %26
  tail call void @FT_Select_Metrics(ptr noundef nonnull %3, i64 noundef 0) #15
  %34 = getelementptr inbounds i8, ptr %3, i64 384
  %35 = load i64, ptr %34, align 8
  %36 = shl nsw i64 %35, 6
  %37 = getelementptr inbounds i8, ptr %0, i64 48
  store i64 %36, ptr %37, align 8
  %38 = getelementptr inbounds i8, ptr %3, i64 392
  %39 = load i64, ptr %38, align 8
  %.neg.i = mul i64 %39, -64
  %40 = getelementptr inbounds i8, ptr %0, i64 56
  store i64 %.neg.i, ptr %40, align 8
  %41 = getelementptr inbounds i8, ptr %3, i64 436
  %42 = load i16, ptr %41, align 4
  %43 = sext i16 %42 to i32
  %44 = shl nsw i32 %43, 6
  %45 = sext i32 %44 to i64
  %46 = getelementptr inbounds i8, ptr %0, i64 72
  store i64 %45, ptr %46, align 8
  br label %.thread

.thread:                                          ; preds = %15, %20, %26, %33
  %.016 = phi i32 [ 0, %33 ], [ 23, %26 ], [ 23, %20 ], [ 7, %15 ]
  ret i32 %.016
}